; Function Attrs: mustprogress nounwind uwtable
define void @_ZN6icu_7716SimpleDateFormat22adoptDateFormatSymbolsEPNS_17DateFormatSymbolsE(ptr noundef nonnull align 8 captures(none) dereferenceable(528) %0, ptr noundef %1) unnamed_addr #0 align 2 {
  %3 = getelementptr inbounds nuw i8, ptr %0, i64 464
  %4 = load ptr, ptr %3, align 8, !tbaa !46
  %5 = icmp eq ptr %4, null
  br i1 %5, label %7, label %6

6:                                                ; preds = %2
  tail call void @_ZN6icu_7717DateFormatSymbolsD1Ev(ptr noundef nonnull align 8 dereferenceable(976) %4) #23
  tail call void @_ZN6icu_777UMemorydlEPv(ptr noundef nonnull %4) #23
  br label %7

7:                                                ; preds = %6, %2
  store ptr %1, ptr %3, align 8, !tbaa !46
  ret void
}